; ModuleID = 'source-C-CXX/48/1287.cpp'
source_filename = "source-C-CXX/48/1287.cpp"
target datalayout = "e-m:e-p270:32:32-p271:32:32-p272:64:64-i64:64-f80:128-n8:16:32:64-S128"
target triple = "x86_64-pc-linux-gnu"

%"class.std::ios_base::Init" = type { i8 }
%"class.std::basic_istream" = type { i32 (...)**, i64, %"class.std::basic_ios" }
%"class.std::basic_ios" = type { %"class.std::ios_base", %"class.std::basic_ostream"*, i8, i8, %"class.std::basic_streambuf"*, %"class.std::ctype"*, %"class.std::num_put"*, %"class.std::num_get"* }
%"class.std::ios_base" = type { i32 (...)**, i64, i64, i32, i32, i32, %"struct.std::ios_base::_Callback_list"*, %"struct.std::ios_base::_Words", [8 x %"struct.std::ios_base::_Words"], i32, %"struct.std::ios_base::_Words"*, %"class.std::locale" }
%"struct.std::ios_base::_Callback_list" = type { %"struct.std::ios_base::_Callback_list"*, void (i32, %"class.std::ios_base"*, i32)*, i32, i32 }
%"struct.std::ios_base::_Words" = type { i8*, i64 }
%"class.std::locale" = type { %"class.std::locale::_Impl"* }
%"class.std::locale::_Impl" = type { i32, %"class.std::locale::facet"**, i64, %"class.std::locale::facet"**, i8** }
%"class.std::locale::facet" = type <{ i32 (...)**, i32, [4 x i8] }>
%"class.std::basic_ostream" = type { i32 (...)**, %"class.std::basic_ios" }
%"class.std::basic_streambuf" = type { i32 (...)**, i8*, i8*, i8*, i8*, i8*, i8*, %"class.std::locale" }
%"class.std::ctype" = type <{ %"class.std::locale::facet.base", [4 x i8], %struct.__locale_struct*, i8, [7 x i8], i32*, i32*, i16*, i8, [256 x i8], [256 x i8], i8, [6 x i8] }>
%"class.std::locale::facet.base" = type <{ i32 (...)**, i32 }>
%struct.__locale_struct = type { [13 x %struct.__locale_data*], i16*, i32*, i32*, [13 x i8*] }
%struct.__locale_data = type opaque
%"class.std::num_put" = type { %"class.std::locale::facet.base", [4 x i8] }
%"class.std::num_get" = type { %"class.std::locale::facet.base", [4 x i8] }

@_ZStL8__ioinit = internal global %"class.std::ios_base::Init" zeroinitializer, align 1
@__dso_handle = external hidden global i8
@_ZSt3cin = external global %"class.std::basic_istream", align 8
@_ZSt4cout = external global %"class.std::basic_ostream", align 8
@llvm.global_ctors = appending global [1 x { i32, void ()*, i8* }] [{ i32, void ()*, i8* } { i32 65535, void ()* @_GLOBAL__sub_I_1287.cpp, i8* null }]

declare void @_ZNSt8ios_base4InitC1Ev(%"class.std::ios_base::Init"* nonnull align 1 dereferenceable(1)) unnamed_addr #0

; Function Attrs: nounwind
declare void @_ZNSt8ios_base4InitD1Ev(%"class.std::ios_base::Init"* nonnull align 1 dereferenceable(1)) unnamed_addr #1

; Function Attrs: nofree nounwind
declare i32 @__cxa_atexit(void (i8*)*, i8*, i8*) local_unnamed_addr #2

; Function Attrs: mustprogress norecurse sspstrong uwtable
define dso_local i32 @main() local_unnamed_addr #3 {
  %1 = alloca i8, align 1
  %2 = alloca [600 x i8], align 16
  %3 = getelementptr inbounds [600 x i8], [600 x i8]* %2, i64 0, i64 0
  call void @llvm.lifetime.start.p0i8(i64 600, i8* nonnull %3) #9
  call void @_ZSt17__istream_extractRSiPcl(%"class.std::basic_istream"* nonnull align 8 dereferenceable(16) @_ZSt3cin, i8* nonnull %3, i64 600)
  %4 = call i64 @strlen(i8* noundef nonnull %3) #10
  %5 = trunc i64 %4 to i32
  %6 = icmp slt i32 %5, 2
  br i1 %6, label %146, label %7

7:                                                ; preds = %0
  %8 = lshr i32 %5, 1
  %9 = add nsw i32 %5, -1
  %10 = add nuw nsw i32 %8, 1
  %11 = zext i32 %10 to i64
  br label %12

12:                                               ; preds = %7, %139
  %13 = phi i64 [ 0, %7 ], [ %145, %139 ]
  %14 = phi i32 [ %9, %7 ], [ %143, %139 ]
  %15 = phi i64 [ 2, %7 ], [ %142, %139 ]
  %16 = phi i64 [ 1, %7 ], [ %141, %139 ]
  %17 = phi i32 [ 1, %7 ], [ %140, %139 ]
  %18 = add i64 %13, 1
  %19 = shl i64 %13, 1
  %20 = or i64 %19, 1
  %21 = sub nsw i32 %5, %17
  %22 = icmp sgt i32 %17, %21
  br i1 %22, label %139, label %23

23:                                               ; preds = %12
  %24 = zext i32 %14 to i64
  %25 = icmp ult i64 %18, 8
  %26 = trunc i64 %13 to i32
  %27 = icmp ugt i64 %13, 4294967295
  %28 = and i64 %18, -8
  %29 = sub i64 %16, %28
  %30 = icmp eq i64 %18, %28
  br label %31

31:                                               ; preds = %23, %134
  %32 = phi i64 [ %16, %23 ], [ %135, %134 ]
  %33 = phi i64 [ %15, %23 ], [ %137, %134 ]
  %34 = phi i64 [ 0, %23 ], [ %136, %134 ]
  %35 = add i64 %20, %34
  %36 = trunc i64 %35 to i32
  br i1 %25, label %77, label %37

37:                                               ; preds = %31
  %38 = sub i32 %36, %26
  %39 = icmp sgt i32 %38, %36
  %40 = or i1 %39, %27
  br i1 %40, label %77, label %41

41:                                               ; preds = %37, %41
  %42 = phi i64 [ %72, %41 ], [ 0, %37 ]
  %43 = phi <4 x i32> [ %70, %41 ], [ zeroinitializer, %37 ]
  %44 = phi <4 x i32> [ %71, %41 ], [ zeroinitializer, %37 ]
  %45 = sub i64 %16, %42
  %46 = add i64 %45, 4294967295
  %47 = add i64 %46, %32
  %48 = shl i64 %47, 32
  %49 = ashr exact i64 %48, 32
  %50 = getelementptr inbounds [600 x i8], [600 x i8]* %2, i64 0, i64 %49
  %51 = getelementptr inbounds i8, i8* %50, i64 -3
  %52 = bitcast i8* %51 to <4 x i8>*
  %53 = load <4 x i8>, <4 x i8>* %52, align 1, !tbaa !5
  %54 = shufflevector <4 x i8> %53, <4 x i8> poison, <4 x i32> <i32 3, i32 2, i32 1, i32 0>
  %55 = getelementptr inbounds i8, i8* %50, i64 -7
  %56 = bitcast i8* %55 to <4 x i8>*
  %57 = load <4 x i8>, <4 x i8>* %56, align 1, !tbaa !5
  %58 = shufflevector <4 x i8> %57, <4 x i8> poison, <4 x i32> <i32 3, i32 2, i32 1, i32 0>
  %59 = sub nuw nsw i64 %32, %45
  %60 = getelementptr inbounds [600 x i8], [600 x i8]* %2, i64 0, i64 %59
  %61 = bitcast i8* %60 to <4 x i8>*
  %62 = load <4 x i8>, <4 x i8>* %61, align 1, !tbaa !5
  %63 = getelementptr inbounds i8, i8* %60, i64 4
  %64 = bitcast i8* %63 to <4 x i8>*
  %65 = load <4 x i8>, <4 x i8>* %64, align 1, !tbaa !5
  %66 = icmp eq <4 x i8> %54, %62
  %67 = icmp eq <4 x i8> %58, %65
  %68 = zext <4 x i1> %66 to <4 x i32>
  %69 = zext <4 x i1> %67 to <4 x i32>
  %70 = add <4 x i32> %43, %68
  %71 = add <4 x i32> %44, %69
  %72 = add nuw i64 %42, 8
  %73 = icmp eq i64 %72, %28
  br i1 %73, label %74, label %41, !llvm.loop !8

74:                                               ; preds = %41
  %75 = add <4 x i32> %71, %70
  %76 = call i32 @llvm.vector.reduce.add.v4i32(<4 x i32> %75)
  br i1 %30, label %96, label %77

77:                                               ; preds = %37, %31, %74
  %78 = phi i64 [ %16, %37 ], [ %16, %31 ], [ %29, %74 ]
  %79 = phi i32 [ 0, %37 ], [ 0, %31 ], [ %76, %74 ]
  br label %80

80:                                               ; preds = %77, %80
  %81 = phi i64 [ %83, %80 ], [ %78, %77 ]
  %82 = phi i32 [ %94, %80 ], [ %79, %77 ]
  %83 = add nsw i64 %81, -1
  %84 = add i64 %83, %32
  %85 = shl i64 %84, 32
  %86 = ashr exact i64 %85, 32
  %87 = getelementptr inbounds [600 x i8], [600 x i8]* %2, i64 0, i64 %86
  %88 = load i8, i8* %87, align 1, !tbaa !5
  %89 = sub nuw nsw i64 %32, %81
  %90 = getelementptr inbounds [600 x i8], [600 x i8]* %2, i64 0, i64 %89
  %91 = load i8, i8* %90, align 1, !tbaa !5
  %92 = icmp eq i8 %88, %91
  %93 = zext i1 %92 to i32
  %94 = add nuw nsw i32 %82, %93
  %95 = icmp sgt i64 %81, 1
  br i1 %95, label %80, label %96, !llvm.loop !11

96:                                               ; preds = %80, %74
  %97 = phi i32 [ %76, %74 ], [ %94, %80 ]
  %98 = icmp eq i32 %97, %17
  br i1 %98, label %99, label %134

99:                                               ; preds = %96, %99
  %100 = phi i64 [ %104, %99 ], [ %34, %96 ]
  %101 = getelementptr inbounds [600 x i8], [600 x i8]* %2, i64 0, i64 %100
  %102 = load i8, i8* %101, align 1, !tbaa !5
  call void @llvm.lifetime.start.p0i8(i64 1, i8* nonnull %1)
  store i8 %102, i8* %1, align 1, !tbaa !5
  %103 = call nonnull align 8 dereferenceable(8) %"class.std::basic_ostream"* @_ZSt16__ostream_insertIcSt11char_traitsIcEERSt13basic_ostreamIT_T0_ES6_PKS3_l(%"class.std::basic_ostream"* nonnull align 8 dereferenceable(8) @_ZSt4cout, i8* nonnull %1, i64 1)
  call void @llvm.lifetime.end.p0i8(i64 1, i8* nonnull %1)
  %104 = add nuw nsw i64 %100, 1
  %105 = icmp eq i64 %104, %33
  br i1 %105, label %106, label %99, !llvm.loop !12

106:                                              ; preds = %99
  %107 = load i8*, i8** bitcast (%"class.std::basic_ostream"* @_ZSt4cout to i8**), align 8, !tbaa !13
  %108 = getelementptr i8, i8* %107, i64 -24
  %109 = bitcast i8* %108 to i64*
  %110 = load i64, i64* %109, align 8
  %111 = add nsw i64 %110, 240
  %112 = getelementptr inbounds i8, i8* bitcast (%"class.std::basic_ostream"* @_ZSt4cout to i8*), i64 %111
  %113 = bitcast i8* %112 to %"class.std::ctype"**
  %114 = load %"class.std::ctype"*, %"class.std::ctype"** %113, align 8, !tbaa !15
  %115 = icmp eq %"class.std::ctype"* %114, null
  br i1 %115, label %116, label %117

116:                                              ; preds = %106
  call void @_ZSt16__throw_bad_castv() #11
  unreachable

117:                                              ; preds = %106
  %118 = getelementptr inbounds %"class.std::ctype", %"class.std::ctype"* %114, i64 0, i32 8
  %119 = load i8, i8* %118, align 8, !tbaa !19
  %120 = icmp eq i8 %119, 0
  br i1 %120, label %124, label %121

121:                                              ; preds = %117
  %122 = getelementptr inbounds %"class.std::ctype", %"class.std::ctype"* %114, i64 0, i32 9, i64 10
  %123 = load i8, i8* %122, align 1, !tbaa !5
  br label %130

124:                                              ; preds = %117
  call void @_ZNKSt5ctypeIcE13_M_widen_initEv(%"class.std::ctype"* nonnull align 8 dereferenceable(570) %114)
  %125 = bitcast %"class.std::ctype"* %114 to i8 (%"class.std::ctype"*, i8)***
  %126 = load i8 (%"class.std::ctype"*, i8)**, i8 (%"class.std::ctype"*, i8)*** %125, align 8, !tbaa !13
  %127 = getelementptr inbounds i8 (%"class.std::ctype"*, i8)*, i8 (%"class.std::ctype"*, i8)** %126, i64 6
  %128 = load i8 (%"class.std::ctype"*, i8)*, i8 (%"class.std::ctype"*, i8)** %127, align 8
  %129 = call signext i8 %128(%"class.std::ctype"* nonnull align 8 dereferenceable(570) %114, i8 signext 10)
  br label %130

130:                                              ; preds = %121, %124
  %131 = phi i8 [ %123, %121 ], [ %129, %124 ]
  %132 = call nonnull align 8 dereferenceable(8) %"class.std::basic_ostream"* @_ZNSo3putEc(%"class.std::basic_ostream"* nonnull align 8 dereferenceable(8) @_ZSt4cout, i8 signext %131)
  %133 = call nonnull align 8 dereferenceable(8) %"class.std::basic_ostream"* @_ZNSo5flushEv(%"class.std::basic_ostream"* nonnull align 8 dereferenceable(8) %132)
  br label %134

134:                                              ; preds = %96, %130
  %135 = add nuw nsw i64 %32, 1
  %136 = add nuw nsw i64 %34, 1
  %137 = add nuw nsw i64 %33, 1
  %138 = icmp eq i64 %136, %24
  br i1 %138, label %139, label %31, !llvm.loop !21

139:                                              ; preds = %134, %12
  %140 = add nuw nsw i32 %17, 1
  %141 = add nuw nsw i64 %16, 1
  %142 = add nuw nsw i64 %15, 2
  %143 = add i32 %14, -2
  %144 = icmp eq i64 %141, %11
  %145 = add i64 %13, 1
  br i1 %144, label %146, label %12, !llvm.loop !22

146:                                              ; preds = %139, %0
  call void @llvm.lifetime.end.p0i8(i64 600, i8* nonnull %3) #9
  ret i32 0
}

; Function Attrs: argmemonly mustprogress nofree nosync nounwind willreturn
declare void @llvm.lifetime.start.p0i8(i64 immarg, i8* nocapture) #4

; Function Attrs: argmemonly mustprogress nofree nounwind readonly willreturn
declare i64 @strlen(i8* nocapture) local_unnamed_addr #5

; Function Attrs: argmemonly mustprogress nofree nosync nounwind willreturn
declare void @llvm.lifetime.end.p0i8(i64 immarg, i8* nocapture) #4

declare void @_ZSt17__istream_extractRSiPcl(%"class.std::basic_istream"* nonnull align 8 dereferenceable(16), i8*, i64) local_unnamed_addr #0

declare nonnull align 8 dereferenceable(8) %"class.std::basic_ostream"* @_ZSt16__ostream_insertIcSt11char_traitsIcEERSt13basic_ostreamIT_T0_ES6_PKS3_l(%"class.std::basic_ostream"* nonnull align 8 dereferenceable(8), i8*, i64) local_unnamed_addr #0

declare nonnull align 8 dereferenceable(8) %"class.std::basic_ostream"* @_ZNSo3putEc(%"class.std::basic_ostream"* nonnull align 8 dereferenceable(8), i8 signext) local_unnamed_addr #0

declare nonnull align 8 dereferenceable(8) %"class.std::basic_ostream"* @_ZNSo5flushEv(%"class.std::basic_ostream"* nonnull align 8 dereferenceable(8)) local_unnamed_addr #0

; Function Attrs: noreturn
declare void @_ZSt16__throw_bad_castv() local_unnamed_addr #6

declare void @_ZNKSt5ctypeIcE13_M_widen_initEv(%"class.std::ctype"* nonnull align 8 dereferenceable(570)) local_unnamed_addr #0

; Function Attrs: sspstrong uwtable
define internal void @_GLOBAL__sub_I_1287.cpp() #7 section ".text.startup" {
  tail call void @_ZNSt8ios_base4InitC1Ev(%"class.std::ios_base::Init"* nonnull align 1 dereferenceable(1) @_ZStL8__ioinit)
  %1 = tail call i32 @__cxa_atexit(void (i8*)* bitcast (void (%"class.std::ios_base::Init"*)* @_ZNSt8ios_base4InitD1Ev to void (i8*)*), i8* getelementptr inbounds (%"class.std::ios_base::Init", %"class.std::ios_base::Init"* @_ZStL8__ioinit, i64 0, i32 0), i8* nonnull @__dso_handle) #9
  ret void
}

; Function Attrs: nofree nosync nounwind readnone willreturn
declare i32 @llvm.vector.reduce.add.v4i32(<4 x i32>) #8


!llvm.module.flags = !{!0, !1, !2, !3}
!llvm.ident = !{!4}

!0 = !{i32 1, !"wchar_size", i32 4}
!1 = !{i32 7, !"PIC Level", i32 2}
!2 = !{i32 7, !"PIE Level", i32 2}
!3 = !{i32 7, !"uwtable", i32 1}
!4 = !{!"clang version 13.0.0"}
!5 = !{!6, !6, i64 0}
!6 = !{!"omnipotent char", !7, i64 0}
!7 = !{!"Simple C++ TBAA"}
!8 = distinct !{!8, !9, !10}
!9 = !{!"llvm.loop.mustprogress"}
!10 = !{!"llvm.loop.isvectorized", i32 1}
!11 = distinct !{!11, !9, !10}
!12 = distinct !{!12, !9}
!13 = !{!14, !14, i64 0}
!14 = !{!"vtable pointer", !7, i64 0}
!15 = !{!16, !17, i64 240}
!16 = !{!"_ZTSSt9basic_iosIcSt11char_traitsIcEE", !17, i64 216, !6, i64 224, !18, i64 225, !17, i64 232, !17, i64 240, !17, i64 248, !17, i64 256}
!17 = !{!"any pointer", !6, i64 0}
!18 = !{!"bool", !6, i64 0}
!19 = !{!20, !6, i64 56}
!20 = !{!"_ZTSSt5ctypeIcE", !17, i64 16, !18, i64 24, !17, i64 32, !17, i64 40, !17, i64 48, !6, i64 56, !6, i64 57, !6, i64 313, !6, i64 569}
!21 = distinct !{!21, !9}
!22 = distinct !{!22, !9}
